target datalayout = "e-m:e-p270:32:32-p271:32:32-p272:64:64-i64:64-i128:128-f80:128-n8:16:32:64-S128"
target triple = "x86_64-pc-linux-gnu"

%struct.stat = type { i64, i64, i64, i32, i32, i32, i32, i64, i64, i64, i64, %struct.timespec, %struct.timespec, %struct.timespec, [3 x i64] }
%struct.timespec = type { i64, i64 }

@.str.3 = private unnamed_addr constant [12 x i8] c"Size failed\00", align 1

; Function Attrs: nounwind uwtable
define internal i64 @handle(ptr noundef %0, i64 noundef %1, ptr noundef %2) #0 {
  %4 = alloca i64, align 8
  %5 = alloca ptr, align 8
  %6 = alloca i64, align 8
  %7 = alloca ptr, align 8
  store ptr %0, ptr %5, align 8
  store i64 %1, ptr %6, align 8
  store ptr %2, ptr %7, align 8
  %8 = load i64, ptr %6, align 8
  %9 = icmp sge i64 %8, 0
  br i1 %9, label %10, label %12

10:                                               ; preds = %3
  %11 = load i64, ptr %6, align 8
  store i64 %11, ptr %4, align 8
  br label %20

12:                                               ; preds = %3
  %13 = call ptr @__errno_location() #5
  %14 = load i32, ptr %13, align 4
  %15 = icmp eq i32 %14, 4
  br i1 %15, label %16, label %17

16:                                               ; preds = %12
  store i64 -3, ptr %4, align 8
  br label %20

17:                                               ; preds = %12
  %18 = load ptr, ptr %5, align 8
  %19 = load ptr, ptr %7, align 8
  call void @JNU_ThrowIOExceptionWithLastError(ptr noundef %18, ptr noundef %19)
  store i64 -5, ptr %4, align 8
  br label %20

20:                                               ; preds = %17, %16, %10
  %21 = load i64, ptr %4, align 8
  ret i64 %21
}

; Function Attrs: nounwind uwtable
define i64 @Java_sun_nio_ch_UnixFileDispatcherImpl_size0(ptr noundef %0, ptr noundef %1, ptr noundef %2) #0 {
  %4 = alloca i64, align 8
  %5 = alloca ptr, align 8
  %6 = alloca ptr, align 8
  %7 = alloca ptr, align 8
  %8 = alloca i32, align 4
  %9 = alloca %struct.stat, align 8
  %10 = alloca i64, align 8
  store ptr %0, ptr %5, align 8
  store ptr %1, ptr %6, align 8
  store ptr %2, ptr %7, align 8
  %11 = load ptr, ptr %5, align 8
  %12 = load ptr, ptr %7, align 8
  %13 = call i32 @fdval(ptr noundef %11, ptr noundef %12)
  store i32 %13, ptr %8, align 4
  %14 = load i32, ptr %8, align 4
  %15 = call i32 @fstat64(i32 noundef %14, ptr noundef %9) #4
  %16 = icmp slt i32 %15, 0
  br i1 %16, label %17, label %20

17:                                               ; preds = %3
  %18 = load ptr, ptr %5, align 8
  %19 = call i64 @handle(ptr noundef %18, i64 noundef -1, ptr noundef @.str.3)
  store i64 %19, ptr %4, align 8
  br label %37

20:                                               ; preds = %3
  %21 = getelementptr inbounds %struct.stat, ptr %9, i32 0, i32 3
  %22 = load i32, ptr %21, align 8
  %23 = and i32 %22, 61440
  %24 = icmp eq i32 %23, 24576
  br i1 %24, label %25, label %34

25:                                               ; preds = %20
  %26 = load i32, ptr %8, align 4
  %27 = call i32 (i32, i64, ...) @ioctl(i32 noundef %26, i64 noundef 2148012658, ptr noundef %10) #4
  %28 = icmp slt i32 %27, 0
  br i1 %28, label %29, label %32

29:                                               ; preds = %25
  %30 = load ptr, ptr %5, align 8
  %31 = call i64 @handle(ptr noundef %30, i64 noundef -1, ptr noundef @.str.3)
  store i64 %31, ptr %4, align 8
  br label %37

32:                                               ; preds = %25
  %33 = load i64, ptr %10, align 8
  store i64 %33, ptr %4, align 8
  br label %37

34:                                               ; preds = %20
  %35 = getelementptr inbounds %struct.stat, ptr %9, i32 0, i32 8
  %36 = load i64, ptr %35, align 8
  store i64 %36, ptr %4, align 8
  br label %37

37:                                               ; preds = %34, %32, %29, %17
  %38 = load i64, ptr %4, align 8
  ret i64 %38
}