; Function Attrs: nounwind uwtable
define i64 @Java_sun_nio_ch_UnixFileDispatcherImpl_size0(ptr noundef %0, ptr nocapture noundef readnone %1, ptr noundef %2) local_unnamed_addr #0 {
  %4 = alloca %struct.stat, align 8
  %5 = alloca i64, align 8
  %6 = tail call i32 @fdval(ptr noundef %0, ptr noundef %2) #6
  %7 = call i32 @fstat64(i32 noundef %6, ptr noundef nonnull %4) #6
  %8 = icmp slt i32 %7, 0
  br i1 %8, label %9, label %14

9:                                                ; preds = %3
  %10 = tail call ptr @__errno_location() #7
  %11 = load i32, ptr %10, align 4
  %12 = icmp eq i32 %11, 4
  br i1 %12, label %handle.exit, label %13

13:                                               ; preds = %9
  tail call void @JNU_ThrowIOExceptionWithLastError(ptr noundef %0, ptr noundef nonnull @.str.3) #6
  br label %handle.exit

14:                                               ; preds = %3
  %15 = getelementptr inbounds i8, ptr %4, i64 24
  %16 = load i32, ptr %15, align 8
  %17 = and i32 %16, 61440
  %18 = icmp eq i32 %17, 24576
  br i1 %18, label %19, label %29

19:                                               ; preds = %14
  %20 = call i32 (i32, i64, ...) @ioctl(i32 noundef %6, i64 noundef 2148012658, ptr noundef nonnull %5) #6
  %21 = icmp slt i32 %20, 0
  br i1 %21, label %22, label %27

22:                                               ; preds = %19
  %23 = tail call ptr @__errno_location() #7
  %24 = load i32, ptr %23, align 4
  %25 = icmp eq i32 %24, 4
  br i1 %25, label %handle.exit, label %26

26:                                               ; preds = %22
  call void @JNU_ThrowIOExceptionWithLastError(ptr noundef %0, ptr noundef nonnull @.str.3) #6
  br label %handle.exit

27:                                               ; preds = %19
  %28 = load i64, ptr %5, align 8
  br label %handle.exit

29:                                               ; preds = %14
  %30 = getelementptr inbounds i8, ptr %4, i64 48
  %31 = load i64, ptr %30, align 8
  br label %handle.exit

handle.exit:                                      ; preds = %26, %22, %13, %9, %29, %27
  %.0 = phi i64 [ %28, %27 ], [ %31, %29 ], [ -5, %13 ], [ -3, %9 ], [ -5, %26 ], [ -3, %22 ]
  ret i64 %.0
}